(iimpl.rg_args
run_args
p0
(dp1
S'rg'
p2
(iimpl.rg_args
rg_args
p3
(dp4
S'log_level'
p5
I40
sS'save_path'
p6
S'/home/zuowenjian/devspace/xcc-team/_rg/.rigger-ng-v2.data'
p7
sS'root'
p8
S'/data/x/tools/rigger-ng'
p9
sS'user'
p10
NsS'conf'
p11
S'/home/zuowenjian/devspace/xcc-team/_rg/conf.yaml'
p12
sS'save'
p13
I01
sS'os'
p14
NsbsS'dev'
p15
(iimpl.rg_args
dev_args
p16
(dp17
S'message'
p18
S''
p19
sg11
S'/home/zuowenjian/devspace/xcc-team/_rg/dev.yaml'
p20
sS'cmds'
p21
(lp22
sbsS'prj'
p23
(iimpl.rg_args
prj_args
p24
(dp25
S'sys'
p26
S'test'
p27
sg11
S'/home/zuowenjian/devspace/xcc-team/_rg/run.yaml'
p28
sS'env'
p29
S'dev'
p30
sg21
(lp31
S'conf'
p32
asbsb.